target datalayout = "e-m:e-p270:32:32-p271:32:32-p272:64:64-i64:64-i128:128-f80:128-n8:16:32:64-S128"
target triple = "x86_64-pc-linux-gnu"

%struct.ossl_qtx_iovec_st = type { ptr, i64 }

; Function Attrs: nounwind uwtable
define void @ossl_quic_sstream_adjust_iov(i64 noundef %0, ptr noundef %1, i64 noundef %2) #0 {
  %4 = alloca i64, align 8
  %5 = alloca ptr, align 8
  %6 = alloca i64, align 8
  %7 = alloca i64, align 8
  %8 = alloca i64, align 8
  %9 = alloca i64, align 8
  store i64 %0, ptr %4, align 8, !tbaa !3
  store ptr %1, ptr %5, align 8, !tbaa !23
  store i64 %2, ptr %6, align 8, !tbaa !3
  call void @llvm.lifetime.start.p0(i64 8, ptr %7) #6
  store i64 0, ptr %7, align 8, !tbaa !3
  call void @llvm.lifetime.start.p0(i64 8, ptr %8) #6
  call void @llvm.lifetime.start.p0(i64 8, ptr %9) #6
  store i64 0, ptr %8, align 8, !tbaa !3
  store i64 0, ptr %7, align 8, !tbaa !3
  br label %10

10:                                               ; preds = %47, %3
  %11 = load i64, ptr %8, align 8, !tbaa !3
  %12 = load i64, ptr %6, align 8, !tbaa !3
  %13 = icmp ult i64 %11, %12
  br i1 %13, label %14, label %50

14:                                               ; preds = %10
  %15 = load ptr, ptr %5, align 8, !tbaa !23
  %16 = load i64, ptr %8, align 8, !tbaa !3
  %17 = getelementptr inbounds nuw %struct.ossl_qtx_iovec_st, ptr %15, i64 %16
  %18 = getelementptr inbounds nuw %struct.ossl_qtx_iovec_st, ptr %17, i32 0, i32 1
  %19 = load i64, ptr %18, align 8, !tbaa !44
  store i64 %19, ptr %9, align 8, !tbaa !3
  %20 = load i64, ptr %7, align 8, !tbaa !3
  %21 = load i64, ptr %4, align 8, !tbaa !3
  %22 = icmp uge i64 %20, %21
  br i1 %22, label %23, label %28

23:                                               ; preds = %14
  %24 = load ptr, ptr %5, align 8, !tbaa !23
  %25 = load i64, ptr %8, align 8, !tbaa !3
  %26 = getelementptr inbounds nuw %struct.ossl_qtx_iovec_st, ptr %24, i64 %25
  %27 = getelementptr inbounds nuw %struct.ossl_qtx_iovec_st, ptr %26, i32 0, i32 1
  store i64 0, ptr %27, align 8, !tbaa !44
  br label %43

28:                                               ; preds = %14
  %29 = load i64, ptr %7, align 8, !tbaa !3
  %30 = load i64, ptr %9, align 8, !tbaa !3
  %31 = add i64 %29, %30
  %32 = load i64, ptr %4, align 8, !tbaa !3
  %33 = icmp ugt i64 %31, %32
  br i1 %33, label %34, label %42

34:                                               ; preds = %28
  %35 = load i64, ptr %4, align 8, !tbaa !3
  %36 = load i64, ptr %7, align 8, !tbaa !3
  %37 = sub i64 %35, %36
  %38 = load ptr, ptr %5, align 8, !tbaa !23
  %39 = load i64, ptr %8, align 8, !tbaa !3
  %40 = getelementptr inbounds nuw %struct.ossl_qtx_iovec_st, ptr %38, i64 %39
  %41 = getelementptr inbounds nuw %struct.ossl_qtx_iovec_st, ptr %40, i32 0, i32 1
  store i64 %37, ptr %41, align 8, !tbaa !44
  br label %42

42:                                               ; preds = %34, %28
  br label %43

43:                                               ; preds = %42, %23
  %44 = load i64, ptr %9, align 8, !tbaa !3
  %45 = load i64, ptr %7, align 8, !tbaa !3
  %46 = add i64 %45, %44
  store i64 %46, ptr %7, align 8, !tbaa !3
  br label %47

47:                                               ; preds = %43
  %48 = load i64, ptr %8, align 8, !tbaa !3
  %49 = add i64 %48, 1
  store i64 %49, ptr %8, align 8, !tbaa !3
  br label %10, !llvm.loop !59

50:                                               ; preds = %10
  call void @llvm.lifetime.end.p0(i64 8, ptr %9) #6
  call void @llvm.lifetime.end.p0(i64 8, ptr %8) #6
  call void @llvm.lifetime.end.p0(i64 8, ptr %7) #6
  ret void
}